target datalayout = "e-m:e-p270:32:32-p271:32:32-p272:64:64-i64:64-i128:128-f80:128-n8:16:32:64-S128"
target triple = "x86_64-pc-linux-gnu"

%struct.HashEntry = type { ptr, i32, ptr }
%struct.HashMap = type { ptr, i32, i32 }

@.str.2 = private unnamed_addr constant [24 x i8] c"internal error at %s:%d\00", align 1
@.str.3 = private unnamed_addr constant [10 x i8] c"hashmap.c\00", align 1

; Function Attrs: nounwind uwtable
define internal zeroext i1 @match(ptr noundef %0, ptr noundef %1, i32 noundef %2) #0 {
  %4 = alloca ptr, align 8
  %5 = alloca ptr, align 8
  %6 = alloca i32, align 4
  store ptr %0, ptr %4, align 8, !tbaa !7
  store ptr %1, ptr %5, align 8, !tbaa !11
  store i32 %2, ptr %6, align 4, !tbaa !13
  %7 = load ptr, ptr %4, align 8, !tbaa !7
  %8 = getelementptr inbounds nuw %struct.HashEntry, ptr %7, i32 0, i32 0
  %9 = load ptr, ptr %8, align 8, !tbaa !22
  %10 = icmp ne ptr %9, null
  br i1 %10, label %11, label %31

11:                                               ; preds = %3
  %12 = load ptr, ptr %4, align 8, !tbaa !7
  %13 = getelementptr inbounds nuw %struct.HashEntry, ptr %12, i32 0, i32 0
  %14 = load ptr, ptr %13, align 8, !tbaa !22
  %15 = icmp ne ptr %14, inttoptr (i64 -1 to ptr)
  br i1 %15, label %16, label %31

16:                                               ; preds = %11
  %17 = load ptr, ptr %4, align 8, !tbaa !7
  %18 = getelementptr inbounds nuw %struct.HashEntry, ptr %17, i32 0, i32 1
  %19 = load i32, ptr %18, align 8, !tbaa !26
  %20 = load i32, ptr %6, align 4, !tbaa !13
  %21 = icmp eq i32 %19, %20
  br i1 %21, label %22, label %31

22:                                               ; preds = %16
  %23 = load ptr, ptr %4, align 8, !tbaa !7
  %24 = getelementptr inbounds nuw %struct.HashEntry, ptr %23, i32 0, i32 0
  %25 = load ptr, ptr %24, align 8, !tbaa !22
  %26 = load ptr, ptr %5, align 8, !tbaa !11
  %27 = load i32, ptr %6, align 4, !tbaa !13
  %28 = sext i32 %27 to i64
  %29 = call i32 @memcmp(ptr noundef %25, ptr noundef %26, i64 noundef %28) #8
  %30 = icmp eq i32 %29, 0
  br label %31

31:                                               ; preds = %22, %16, %11, %3
  %32 = phi i1 [ false, %16 ], [ false, %11 ], [ false, %3 ], [ %30, %22 ]
  ret i1 %32
}

; Function Attrs: nounwind uwtable
define internal i64 @fnv_hash(ptr noundef %0, i32 noundef %1) #0 {
  %3 = alloca ptr, align 8
  %4 = alloca i32, align 4
  %5 = alloca i64, align 8
  %6 = alloca i32, align 4
  store ptr %0, ptr %3, align 8, !tbaa !11
  store i32 %1, ptr %4, align 4, !tbaa !13
  call void @llvm.lifetime.start.p0(i64 8, ptr %5) #9
  store i64 -3750763034362895579, ptr %5, align 8, !tbaa !19
  call void @llvm.lifetime.start.p0(i64 4, ptr %6) #9
  store i32 0, ptr %6, align 4, !tbaa !13
  br label %7

7:                                                ; preds = %23, %2
  %8 = load i32, ptr %6, align 4, !tbaa !13
  %9 = load i32, ptr %4, align 4, !tbaa !13
  %10 = icmp slt i32 %8, %9
  br i1 %10, label %12, label %11

11:                                               ; preds = %7
  call void @llvm.lifetime.end.p0(i64 4, ptr %6) #9
  br label %26

12:                                               ; preds = %7
  %13 = load i64, ptr %5, align 8, !tbaa !19
  %14 = mul i64 %13, 1099511628211
  store i64 %14, ptr %5, align 8, !tbaa !19
  %15 = load ptr, ptr %3, align 8, !tbaa !11
  %16 = load i32, ptr %6, align 4, !tbaa !13
  %17 = sext i32 %16 to i64
  %18 = getelementptr inbounds i8, ptr %15, i64 %17
  %19 = load i8, ptr %18, align 1, !tbaa !39
  %20 = zext i8 %19 to i64
  %21 = load i64, ptr %5, align 8, !tbaa !19
  %22 = xor i64 %21, %20
  store i64 %22, ptr %5, align 8, !tbaa !19
  br label %23

23:                                               ; preds = %12
  %24 = load i32, ptr %6, align 4, !tbaa !13
  %25 = add nsw i32 %24, 1
  store i32 %25, ptr %6, align 4, !tbaa !13
  br label %7, !llvm.loop !40

26:                                               ; preds = %11
  %27 = load i64, ptr %5, align 8, !tbaa !19
  call void @llvm.lifetime.end.p0(i64 8, ptr %5) #9
  ret i64 %27
}

; Function Attrs: nounwind uwtable
define internal ptr @get_entry(ptr noundef %0, ptr noundef %1, i32 noundef %2) #0 {
  %4 = alloca ptr, align 8
  %5 = alloca ptr, align 8
  %6 = alloca ptr, align 8
  %7 = alloca i32, align 4
  %8 = alloca i64, align 8
  %9 = alloca i32, align 4
  %10 = alloca i32, align 4
  %11 = alloca ptr, align 8
  store ptr %0, ptr %5, align 8, !tbaa !7
  store ptr %1, ptr %6, align 8, !tbaa !11
  store i32 %2, ptr %7, align 4, !tbaa !13
  %12 = load ptr, ptr %5, align 8, !tbaa !7
  %13 = getelementptr inbounds nuw %struct.HashMap, ptr %12, i32 0, i32 0
  %14 = load ptr, ptr %13, align 8, !tbaa !17
  %15 = icmp ne ptr %14, null
  br i1 %15, label %17, label %16

16:                                               ; preds = %3
  store ptr null, ptr %4, align 8
  br label %65

17:                                               ; preds = %3
  call void @llvm.lifetime.start.p0(i64 8, ptr %8) #9
  %18 = load ptr, ptr %6, align 8, !tbaa !11
  %19 = load i32, ptr %7, align 4, !tbaa !13
  %20 = call i64 @fnv_hash(ptr noundef %18, i32 noundef %19)
  store i64 %20, ptr %8, align 8, !tbaa !19
  call void @llvm.lifetime.start.p0(i64 4, ptr %9) #9
  store i32 0, ptr %9, align 4, !tbaa !13
  br label %21

21:                                               ; preds = %58, %17
  %22 = load i32, ptr %9, align 4, !tbaa !13
  %23 = load ptr, ptr %5, align 8, !tbaa !7
  %24 = getelementptr inbounds nuw %struct.HashMap, ptr %23, i32 0, i32 1
  %25 = load i32, ptr %24, align 8, !tbaa !21
  %26 = icmp slt i32 %22, %25
  br i1 %26, label %28, label %27

27:                                               ; preds = %21
  store i32 2, ptr %10, align 4
  br label %61

28:                                               ; preds = %21
  call void @llvm.lifetime.start.p0(i64 8, ptr %11) #9
  %29 = load ptr, ptr %5, align 8, !tbaa !7
  %30 = getelementptr inbounds nuw %struct.HashMap, ptr %29, i32 0, i32 0
  %31 = load ptr, ptr %30, align 8, !tbaa !17
  %32 = load i64, ptr %8, align 8, !tbaa !19
  %33 = load i32, ptr %9, align 4, !tbaa !13
  %34 = sext i32 %33 to i64
  %35 = add i64 %32, %34
  %36 = load ptr, ptr %5, align 8, !tbaa !7
  %37 = getelementptr inbounds nuw %struct.HashMap, ptr %36, i32 0, i32 1
  %38 = load i32, ptr %37, align 8, !tbaa !21
  %39 = sext i32 %38 to i64
  %40 = urem i64 %35, %39
  %41 = getelementptr inbounds nuw %struct.HashEntry, ptr %31, i64 %40
  store ptr %41, ptr %11, align 8, !tbaa !7
  %42 = load ptr, ptr %11, align 8, !tbaa !7
  %43 = load ptr, ptr %6, align 8, !tbaa !11
  %44 = load i32, ptr %7, align 4, !tbaa !13
  %45 = call zeroext i1 @match(ptr noundef %42, ptr noundef %43, i32 noundef %44)
  br i1 %45, label %46, label %48

46:                                               ; preds = %28
  %47 = load ptr, ptr %11, align 8, !tbaa !7
  store ptr %47, ptr %4, align 8
  store i32 1, ptr %10, align 4
  br label %55

48:                                               ; preds = %28
  %49 = load ptr, ptr %11, align 8, !tbaa !7
  %50 = getelementptr inbounds nuw %struct.HashEntry, ptr %49, i32 0, i32 0
  %51 = load ptr, ptr %50, align 8, !tbaa !22
  %52 = icmp eq ptr %51, null
  br i1 %52, label %53, label %54

53:                                               ; preds = %48
  store ptr null, ptr %4, align 8
  store i32 1, ptr %10, align 4
  br label %55

54:                                               ; preds = %48
  store i32 0, ptr %10, align 4
  br label %55

55:                                               ; preds = %54, %53, %46
  call void @llvm.lifetime.end.p0(i64 8, ptr %11) #9
  %56 = load i32, ptr %10, align 4
  switch i32 %56, label %61 [
    i32 0, label %57
  ]

57:                                               ; preds = %55
  br label %58

58:                                               ; preds = %57
  %59 = load i32, ptr %9, align 4, !tbaa !13
  %60 = add nsw i32 %59, 1
  store i32 %60, ptr %9, align 4, !tbaa !13
  br label %21, !llvm.loop !23

61:                                               ; preds = %55, %27
  call void @llvm.lifetime.end.p0(i64 4, ptr %9) #9
  %62 = load i32, ptr %10, align 4
  switch i32 %62, label %64 [
    i32 2, label %63
  ]

63:                                               ; preds = %61
  call void (ptr, ...) @error(ptr noundef @.str.2, ptr noundef @.str.3, i32 noundef 73) #10
  unreachable

64:                                               ; preds = %61
  call void @llvm.lifetime.end.p0(i64 8, ptr %8) #9
  br label %65

65:                                               ; preds = %64, %16
  %66 = load ptr, ptr %4, align 8
  ret ptr %66
}

; Function Attrs: nounwind uwtable
define dso_local void @hashmap_delete2(ptr noundef %0, ptr noundef %1, i32 noundef %2) #0 {
  %4 = alloca ptr, align 8
  %5 = alloca ptr, align 8
  %6 = alloca i32, align 4
  %7 = alloca ptr, align 8
  store ptr %0, ptr %4, align 8, !tbaa !7
  store ptr %1, ptr %5, align 8, !tbaa !11
  store i32 %2, ptr %6, align 4, !tbaa !13
  call void @llvm.lifetime.start.p0(i64 8, ptr %7) #9
  %8 = load ptr, ptr %4, align 8, !tbaa !7
  %9 = load ptr, ptr %5, align 8, !tbaa !11
  %10 = load i32, ptr %6, align 4, !tbaa !13
  %11 = call ptr @get_entry(ptr noundef %8, ptr noundef %9, i32 noundef %10)
  store ptr %11, ptr %7, align 8, !tbaa !7
  %12 = load ptr, ptr %7, align 8, !tbaa !7
  %13 = icmp ne ptr %12, null
  br i1 %13, label %14, label %17

14:                                               ; preds = %3
  %15 = load ptr, ptr %7, align 8, !tbaa !7
  %16 = getelementptr inbounds nuw %struct.HashEntry, ptr %15, i32 0, i32 0
  store ptr inttoptr (i64 -1 to ptr), ptr %16, align 8, !tbaa !22
  br label %17

17:                                               ; preds = %14, %3
  call void @llvm.lifetime.end.p0(i64 8, ptr %7) #9
  ret void
}

; Function Attrs: nounwind uwtable
define dso_local void @hashmap_delete(ptr noundef %0, ptr noundef %1) #0 {
  %3 = alloca ptr, align 8
  %4 = alloca ptr, align 8
  store ptr %0, ptr %3, align 8, !tbaa !7
  store ptr %1, ptr %4, align 8, !tbaa !11
  %5 = load ptr, ptr %3, align 8, !tbaa !7
  %6 = load ptr, ptr %4, align 8, !tbaa !11
  %7 = load ptr, ptr %4, align 8, !tbaa !11
  %8 = call i64 @strlen(ptr noundef %7) #8
  %9 = trunc i64 %8 to i32
  call void @hashmap_delete2(ptr noundef %5, ptr noundef %6, i32 noundef %9)
  ret void
}