; Function Attrs: nounwind uwtable
define dso_local void @hashmap_delete(ptr noundef readonly captures(none) %0, ptr noundef readonly captures(none) %1) local_unnamed_addr #0 {
  %3 = tail call i64 @strlen(ptr noundef nonnull dereferenceable(1) %1) #9
  %4 = trunc i64 %3 to i32
  %5 = load ptr, ptr %0, align 8, !tbaa !7
  %.not.i.i = icmp eq ptr %5, null
  br i1 %.not.i.i, label %hashmap_delete2.exit, label %6

6:                                                ; preds = %2
  %7 = icmp sgt i32 %4, 0
  br i1 %7, label %.lr.ph.preheader.i.i.i, label %fnv_hash.exit.i.i

.lr.ph.preheader.i.i.i:                           ; preds = %6
  %wide.trip.count.i.i.i = and i64 %3, 2147483647
  br label %.lr.ph.i.i.i

.lr.ph.i.i.i:                                     ; preds = %.lr.ph.i.i.i, %.lr.ph.preheader.i.i.i
  %indvars.iv.i.i.i = phi i64 [ 0, %.lr.ph.preheader.i.i.i ], [ %indvars.iv.next.i.i.i, %.lr.ph.i.i.i ]
  %.078.i.i.i = phi i64 [ -3750763034362895579, %.lr.ph.preheader.i.i.i ], [ %12, %.lr.ph.i.i.i ]
  %8 = mul i64 %.078.i.i.i, 1099511628211
  %9 = getelementptr inbounds nuw i8, ptr %1, i64 %indvars.iv.i.i.i
  %10 = load i8, ptr %9, align 1, !tbaa !13
  %11 = zext i8 %10 to i64
  %12 = xor i64 %8, %11
  %indvars.iv.next.i.i.i = add nuw nsw i64 %indvars.iv.i.i.i, 1
  %exitcond.not.i.i.i = icmp eq i64 %indvars.iv.next.i.i.i, %wide.trip.count.i.i.i
  br i1 %exitcond.not.i.i.i, label %fnv_hash.exit.i.i, label %.lr.ph.i.i.i, !llvm.loop !14

fnv_hash.exit.i.i:                                ; preds = %.lr.ph.i.i.i, %6
  %.07.lcssa.i.i.i = phi i64 [ -3750763034362895579, %6 ], [ %12, %.lr.ph.i.i.i ]
  %13 = getelementptr inbounds nuw i8, ptr %0, i64 8
  %14 = load i32, ptr %13, align 8, !tbaa !16
  %.not2228.i.i = icmp sgt i32 %14, 0
  br i1 %.not2228.i.i, label %.lr.ph.i.i, label %._crit_edge.i.i

.lr.ph.i.i:                                       ; preds = %fnv_hash.exit.i.i
  %15 = zext nneg i32 %14 to i64
  %sext = shl i64 %3, 32
  %16 = ashr exact i64 %sext, 32
  br label %18

17:                                               ; preds = %match.exit.thread.i.i, %18
  %indvars.iv.next.i.i = add nuw nsw i64 %indvars.iv.i.i, 1
  %exitcond.not.i.i = icmp eq i64 %indvars.iv.next.i.i, %15
  br i1 %exitcond.not.i.i, label %._crit_edge.i.i, label %18, !llvm.loop !17

18:                                               ; preds = %17, %.lr.ph.i.i
  %indvars.iv.i.i = phi i64 [ 0, %.lr.ph.i.i ], [ %indvars.iv.next.i.i, %17 ]
  %19 = add i64 %indvars.iv.i.i, %.07.lcssa.i.i.i
  %20 = urem i64 %19, %15
  %21 = getelementptr inbounds nuw %struct.HashEntry, ptr %5, i64 %20
  %22 = load ptr, ptr %21, align 8, !tbaa !18
  %magicptr.i.i = ptrtoint ptr %22 to i64
  switch i64 %magicptr.i.i, label %23 [
    i64 0, label %hashmap_delete2.exit
    i64 -1, label %17
  ]

23:                                               ; preds = %18
  %24 = getelementptr inbounds nuw i8, ptr %21, i64 8
  %25 = load i32, ptr %24, align 8, !tbaa !21
  %26 = icmp eq i32 %25, %4
  br i1 %26, label %match.exit.i.i, label %match.exit.thread.i.i

match.exit.i.i:                                   ; preds = %23
  %bcmp.i.i.i = tail call i32 @bcmp(ptr nonnull %22, ptr nonnull readonly %1, i64 %16)
  %27 = icmp eq i32 %bcmp.i.i.i, 0
  br i1 %27, label %get_entry.exit.i, label %match.exit.thread.i.i

match.exit.thread.i.i:                            ; preds = %match.exit.i.i, %23
  %.not27.i.i = icmp eq ptr %22, null
  br i1 %.not27.i.i, label %hashmap_delete2.exit, label %17

._crit_edge.i.i:                                  ; preds = %17, %fnv_hash.exit.i.i
  tail call void (ptr, ...) @error(ptr noundef nonnull @.str.2, ptr noundef nonnull @.str.3, i32 noundef 73) #10
  unreachable

get_entry.exit.i:                                 ; preds = %match.exit.i.i
  store ptr inttoptr (i64 -1 to ptr), ptr %21, align 8, !tbaa !18
  br label %hashmap_delete2.exit

hashmap_delete2.exit:                             ; preds = %18, %match.exit.thread.i.i, %2, %get_entry.exit.i
  ret void
}